target datalayout = "e-m:e-p270:32:32-p271:32:32-p272:64:64-i64:64-i128:128-f80:128-n8:16:32:64-S128"
target triple = "x86_64-pc-linux-gnu"

; Function Attrs: mustprogress nounwind uwtable
define hidden noundef ptr @_ZN11OptoRuntime18flush_windows_TypeEv() #1 align 2 {
  %1 = alloca ptr, align 8
  %2 = alloca ptr, align 8
  %3 = alloca ptr, align 8
  %4 = call noundef ptr @_ZN9TypeTuple6fieldsEj(i32 noundef 1)
  store ptr %4, ptr %1, align 8
  %5 = load ptr, ptr %1, align 8
  %6 = getelementptr inbounds ptr, ptr %5, i64 5
  store ptr null, ptr %6, align 8
  %7 = load ptr, ptr %1, align 8
  %8 = call noundef ptr @_ZN9TypeTuple4makeEjPPK4Type(i32 noundef 5, ptr noundef %7)
  store ptr %8, ptr %2, align 8
  %9 = call noundef ptr @_ZN9TypeTuple6fieldsEj(i32 noundef 1)
  store ptr %9, ptr %1, align 8
  %10 = load ptr, ptr %1, align 8
  %11 = getelementptr inbounds ptr, ptr %10, i64 5
  store ptr null, ptr %11, align 8
  %12 = load ptr, ptr %1, align 8
  %13 = call noundef ptr @_ZN9TypeTuple4makeEjPPK4Type(i32 noundef 5, ptr noundef %12)
  store ptr %13, ptr %3, align 8
  %14 = load ptr, ptr %2, align 8
  %15 = load ptr, ptr %3, align 8
  %16 = call noundef ptr @_ZN8TypeFunc4makeEPK9TypeTupleS2_(ptr noundef %14, ptr noundef %15)
  ret ptr %16
}