; Function Attrs: mustprogress nounwind uwtable
define hidden noundef ptr @_ZN11OptoRuntime18flush_windows_TypeEv() local_unnamed_addr #0 align 2 {
  %1 = tail call noundef ptr @_ZN9TypeTuple6fieldsEj(i32 noundef 1) #12
  %2 = getelementptr inbounds i8, ptr %1, i64 40
  store ptr null, ptr %2, align 8
  %3 = tail call noundef ptr @_ZN9TypeTuple4makeEjPPK4Type(i32 noundef 5, ptr noundef %1) #12
  %4 = tail call noundef ptr @_ZN9TypeTuple6fieldsEj(i32 noundef 1) #12
  %5 = getelementptr inbounds i8, ptr %4, i64 40
  store ptr null, ptr %5, align 8
  %6 = tail call noundef ptr @_ZN9TypeTuple4makeEjPPK4Type(i32 noundef 5, ptr noundef %4) #12
  %7 = tail call noundef ptr @_ZN8TypeFunc4makeEPK9TypeTupleS2_(ptr noundef %3, ptr noundef %6) #12
  ret ptr %7
}